target datalayout = "e-m:e-p270:32:32-p271:32:32-p272:64:64-i64:64-i128:128-f80:128-n8:16:32:64-S128"
target triple = "x86_64-pc-linux-gnu"

%"class.icu_77::UnicodeString" = type { %"class.icu_77::Replaceable", %"union.icu_77::UnicodeString::StackBufferOrFields" }
%"class.icu_77::Replaceable" = type { %"class.icu_77::UObject" }
%"class.icu_77::UObject" = type { ptr }
%"union.icu_77::UnicodeString::StackBufferOrFields" = type { %struct.anon.0, [32 x i8] }
%struct.anon.0 = type { i16, i32, i32, ptr }
%"class.icu_77::SimpleDateFormat" = type { %"class.icu_77::DateFormat", %"class.icu_77::UnicodeString", %"class.icu_77::UnicodeString", %"class.icu_77::UnicodeString", %"class.icu_77::Locale", ptr, ptr, double, i8, i8, i8, i32, ptr, ptr, i8, ptr }
%"class.icu_77::DateFormat" = type { %"class.icu_77::Format", ptr, ptr, %"class.icu_77::EnumSet", i32 }
%"class.icu_77::Format" = type { %"class.icu_77::UObject", ptr, ptr }
%"class.icu_77::EnumSet" = type { i32 }
%"class.icu_77::Locale" = type <{ %"class.icu_77::UObject", [12 x i8], [6 x i8], [4 x i8], [2 x i8], i32, [4 x i8], ptr, [157 x i8], [3 x i8], ptr, i8, [7 x i8] }>
%struct.anon = type { i16, [27 x i16] }

@_ZTVN6icu_777UObjectE = available_externally unnamed_addr constant { [5 x ptr] } { [5 x ptr] [ptr null, ptr @_ZTIN6icu_777UObjectE, ptr @_ZN6icu_777UObjectD1Ev, ptr @_ZN6icu_777UObjectD0Ev, ptr @_ZNK6icu_777UObject17getDynamicClassIDEv] }, align 8

; Function Attrs: inlinehint mustprogress nounwind uwtable
define linkonce_odr void @_ZN6icu_777UObjectC2Ev(ptr noundef nonnull align 8 dereferenceable(8) %0) unnamed_addr #2 comdat align 2 {
  %2 = alloca ptr, align 8
  store ptr %0, ptr %2, align 8, !tbaa !339
  %3 = load ptr, ptr %2, align 8
  store ptr getelementptr inbounds inrange(-16, 24) ({ [5 x ptr] }, ptr @_ZTVN6icu_777UObjectE, i32 0, i32 0, i32 2), ptr %3, align 8, !tbaa !63
  ret void
}

; Function Attrs: inlinehint mustprogress nounwind uwtable
define linkonce_odr void @_ZN6icu_7711ReplaceableC2Ev(ptr noundef nonnull align 8 dereferenceable(8) %0) unnamed_addr #2 comdat align 2 {
  %2 = alloca ptr, align 8
  store ptr %0, ptr %2, align 8, !tbaa !337
  %3 = load ptr, ptr %2, align 8
  call void @_ZN6icu_777UObjectC2Ev(ptr noundef nonnull align 8 dereferenceable(8) %3) #12
  store ptr getelementptr inbounds inrange(-16, 88) ({ [13 x ptr] }, ptr @_ZTVN6icu_7711ReplaceableE, i32 0, i32 0, i32 2), ptr %3, align 8, !tbaa !63
  ret void
}

; Function Attrs: mustprogress uwtable
define void @_ZN6icu_7716SimpleDateFormat27initializeBooleanAttributesEv(ptr noundef nonnull align 8 dereferenceable(528) %0) #1 align 2 {
  %2 = alloca ptr, align 8
  %3 = alloca i32, align 4
  store ptr %0, ptr %2, align 8, !tbaa !23
  %4 = load ptr, ptr %2, align 8
  call void @llvm.lifetime.start.p0(i64 4, ptr %3) #12
  store i32 0, ptr %3, align 4, !tbaa !15
  %5 = load ptr, ptr %4, align 8, !tbaa !63
  %6 = getelementptr inbounds ptr, ptr %5, i64 27
  %7 = load ptr, ptr %6, align 8
  %8 = call noundef nonnull align 8 dereferenceable(48) ptr %7(ptr noundef nonnull align 8 dereferenceable(48) %4, i32 noundef 0, i8 noundef signext 1, ptr noundef nonnull align 4 dereferenceable(4) %3)
  %9 = load ptr, ptr %4, align 8, !tbaa !63
  %10 = getelementptr inbounds ptr, ptr %9, i64 27
  %11 = load ptr, ptr %10, align 8
  %12 = call noundef nonnull align 8 dereferenceable(48) ptr %11(ptr noundef nonnull align 8 dereferenceable(48) %4, i32 noundef 1, i8 noundef signext 1, ptr noundef nonnull align 4 dereferenceable(4) %3)
  %13 = load ptr, ptr %4, align 8, !tbaa !63
  %14 = getelementptr inbounds ptr, ptr %13, i64 27
  %15 = load ptr, ptr %14, align 8
  %16 = call noundef nonnull align 8 dereferenceable(48) ptr %15(ptr noundef nonnull align 8 dereferenceable(48) %4, i32 noundef 2, i8 noundef signext 1, ptr noundef nonnull align 4 dereferenceable(4) %3)
  %17 = load ptr, ptr %4, align 8, !tbaa !63
  %18 = getelementptr inbounds ptr, ptr %17, i64 27
  %19 = load ptr, ptr %18, align 8
  %20 = call noundef nonnull align 8 dereferenceable(48) ptr %19(ptr noundef nonnull align 8 dereferenceable(48) %4, i32 noundef 3, i8 noundef signext 1, ptr noundef nonnull align 4 dereferenceable(4) %3)
  call void @llvm.lifetime.end.p0(i64 4, ptr %3) #12
  ret void
}

; Function Attrs: inlinehint mustprogress uwtable
define linkonce_odr void @_ZN6icu_7713UnicodeStringC2Ev(ptr noundef nonnull align 8 dereferenceable(64) %0) unnamed_addr #3 comdat align 2 {
  %2 = alloca ptr, align 8
  store ptr %0, ptr %2, align 8, !tbaa !72
  %3 = load ptr, ptr %2, align 8
  call void @_ZN6icu_7711ReplaceableC2Ev(ptr noundef nonnull align 8 dereferenceable(8) %3)
  store ptr getelementptr inbounds inrange(-16, 88) ({ [13 x ptr] }, ptr @_ZTVN6icu_7713UnicodeStringE, i32 0, i32 0, i32 2), ptr %3, align 8, !tbaa !63
  %4 = getelementptr inbounds nuw %"class.icu_77::UnicodeString", ptr %3, i32 0, i32 1
  %5 = getelementptr inbounds nuw %struct.anon, ptr %4, i32 0, i32 0
  store i16 2, ptr %5, align 8, !tbaa !74
  ret void
}

; Function Attrs: mustprogress uwtable
define void @_ZN6icu_7716SimpleDateFormatC2ERKS0_(ptr noundef nonnull align 8 dereferenceable(528) %0, ptr noundef nonnull align 8 dereferenceable(528) %1) unnamed_addr #1 align 2 personality ptr @__gxx_personality_v0 {
  %3 = alloca ptr, align 8
  %4 = alloca ptr, align 8
  %5 = alloca ptr, align 8
  %6 = alloca i32, align 4
  store ptr %0, ptr %3, align 8, !tbaa !23
  store ptr %1, ptr %4, align 8, !tbaa !23
  %7 = load ptr, ptr %3, align 8
  %8 = load ptr, ptr %4, align 8, !tbaa !23
  call void @_ZN6icu_7710DateFormatC2ERKS0_(ptr noundef nonnull align 8 dereferenceable(48) %7, ptr noundef nonnull align 8 dereferenceable(48) %8)
  store ptr getelementptr inbounds inrange(-16, 320) ({ [42 x ptr] }, ptr @_ZTVN6icu_7716SimpleDateFormatE, i32 0, i32 0, i32 2), ptr %7, align 8, !tbaa !63
  %9 = getelementptr inbounds nuw %"class.icu_77::SimpleDateFormat", ptr %7, i32 0, i32 1
  invoke void @_ZN6icu_7713UnicodeStringC2Ev(ptr noundef nonnull align 8 dereferenceable(64) %9)
          to label %10 unwind label %28

10:                                               ; preds = %2
  %11 = getelementptr inbounds nuw %"class.icu_77::SimpleDateFormat", ptr %7, i32 0, i32 2
  invoke void @_ZN6icu_7713UnicodeStringC2Ev(ptr noundef nonnull align 8 dereferenceable(64) %11)
          to label %12 unwind label %32

12:                                               ; preds = %10
  %13 = getelementptr inbounds nuw %"class.icu_77::SimpleDateFormat", ptr %7, i32 0, i32 3
  invoke void @_ZN6icu_7713UnicodeStringC2Ev(ptr noundef nonnull align 8 dereferenceable(64) %13)
          to label %14 unwind label %36

14:                                               ; preds = %12
  %15 = getelementptr inbounds nuw %"class.icu_77::SimpleDateFormat", ptr %7, i32 0, i32 4
  %16 = load ptr, ptr %4, align 8, !tbaa !23
  %17 = getelementptr inbounds nuw %"class.icu_77::SimpleDateFormat", ptr %16, i32 0, i32 4
  invoke void @_ZN6icu_776LocaleC1ERKS0_(ptr noundef nonnull align 8 dereferenceable(217) %15, ptr noundef nonnull align 8 dereferenceable(217) %17)
          to label %18 unwind label %40

18:                                               ; preds = %14
  %19 = getelementptr inbounds nuw %"class.icu_77::SimpleDateFormat", ptr %7, i32 0, i32 5
  store ptr null, ptr %19, align 8, !tbaa !65
  %20 = getelementptr inbounds nuw %"class.icu_77::SimpleDateFormat", ptr %7, i32 0, i32 6
  store ptr null, ptr %20, align 8, !tbaa !66
  %21 = getelementptr inbounds nuw %"class.icu_77::SimpleDateFormat", ptr %7, i32 0, i32 12
  store ptr null, ptr %21, align 8, !tbaa !35
  %22 = getelementptr inbounds nuw %"class.icu_77::SimpleDateFormat", ptr %7, i32 0, i32 13
  store ptr null, ptr %22, align 8, !tbaa !67
  %23 = getelementptr inbounds nuw %"class.icu_77::SimpleDateFormat", ptr %7, i32 0, i32 15
  store ptr null, ptr %23, align 8, !tbaa !68
  invoke void @_ZN6icu_7716SimpleDateFormat27initializeBooleanAttributesEv(ptr noundef nonnull align 8 dereferenceable(528) %7)
          to label %24 unwind label %44

24:                                               ; preds = %18
  %25 = load ptr, ptr %4, align 8, !tbaa !23
  %26 = invoke noundef nonnull align 8 dereferenceable(528) ptr @_ZN6icu_7716SimpleDateFormataSERKS0_(ptr noundef nonnull align 8 dereferenceable(528) %7, ptr noundef nonnull align 8 dereferenceable(528) %25)
          to label %27 unwind label %44

27:                                               ; preds = %24
  ret void

28:                                               ; preds = %2
  %29 = landingpad { ptr, i32 }
          cleanup
  %30 = extractvalue { ptr, i32 } %29, 0
  store ptr %30, ptr %5, align 8
  %31 = extractvalue { ptr, i32 } %29, 1
  store i32 %31, ptr %6, align 4
  br label %51

32:                                               ; preds = %10
  %33 = landingpad { ptr, i32 }
          cleanup
  %34 = extractvalue { ptr, i32 } %33, 0
  store ptr %34, ptr %5, align 8
  %35 = extractvalue { ptr, i32 } %33, 1
  store i32 %35, ptr %6, align 4
  br label %50

36:                                               ; preds = %12
  %37 = landingpad { ptr, i32 }
          cleanup
  %38 = extractvalue { ptr, i32 } %37, 0
  store ptr %38, ptr %5, align 8
  %39 = extractvalue { ptr, i32 } %37, 1
  store i32 %39, ptr %6, align 4
  br label %49

40:                                               ; preds = %14
  %41 = landingpad { ptr, i32 }
          cleanup
  %42 = extractvalue { ptr, i32 } %41, 0
  store ptr %42, ptr %5, align 8
  %43 = extractvalue { ptr, i32 } %41, 1
  store i32 %43, ptr %6, align 4
  br label %48

44:                                               ; preds = %24, %18
  %45 = landingpad { ptr, i32 }
          cleanup
  %46 = extractvalue { ptr, i32 } %45, 0
  store ptr %46, ptr %5, align 8
  %47 = extractvalue { ptr, i32 } %45, 1
  store i32 %47, ptr %6, align 4
  call void @_ZN6icu_776LocaleD1Ev(ptr noundef nonnull align 8 dereferenceable(217) %15) #12
  br label %48

48:                                               ; preds = %44, %40
  call void @_ZN6icu_7713UnicodeStringD1Ev(ptr noundef nonnull align 8 dereferenceable(64) %13) #12
  br label %49

49:                                               ; preds = %48, %36
  call void @_ZN6icu_7713UnicodeStringD1Ev(ptr noundef nonnull align 8 dereferenceable(64) %11) #12
  br label %50

50:                                               ; preds = %49, %32
  call void @_ZN6icu_7713UnicodeStringD1Ev(ptr noundef nonnull align 8 dereferenceable(64) %9) #12
  br label %51

51:                                               ; preds = %50, %28
  call void @_ZN6icu_7710DateFormatD2Ev(ptr noundef nonnull align 8 dereferenceable(48) %7) #12
  br label %52

52:                                               ; preds = %51
  %53 = load ptr, ptr %5, align 8
  %54 = load i32, ptr %6, align 4
  %55 = insertvalue { ptr, i32 } poison, ptr %53, 0
  %56 = insertvalue { ptr, i32 } %55, i32 %54, 1
  resume { ptr, i32 } %56
}