; Function Attrs: mustprogress uwtable
define void @_ZN6icu_7716SimpleDateFormatC2ERKS0_(ptr noundef nonnull align 8 dereferenceable(528) %0, ptr noundef nonnull align 8 dereferenceable(528) %1) unnamed_addr #1 align 2 personality ptr @__gxx_personality_v0 {
  %3 = alloca i32, align 4
  tail call void @_ZN6icu_7710DateFormatC2ERKS0_(ptr noundef nonnull align 8 dereferenceable(48) %0, ptr noundef nonnull align 8 dereferenceable(48) %1)
  store ptr getelementptr inbounds nuw inrange(-16, 320) (i8, ptr @_ZTVN6icu_7716SimpleDateFormatE, i64 16), ptr %0, align 8, !tbaa !44
  %4 = getelementptr inbounds nuw i8, ptr %0, i64 48
  store ptr getelementptr inbounds nuw inrange(-16, 88) (i8, ptr @_ZTVN6icu_7713UnicodeStringE, i64 16), ptr %4, align 8, !tbaa !44
  %5 = getelementptr inbounds nuw i8, ptr %0, i64 56
  store i16 2, ptr %5, align 8, !tbaa !51
  %6 = getelementptr inbounds nuw i8, ptr %0, i64 112
  store ptr getelementptr inbounds nuw inrange(-16, 88) (i8, ptr @_ZTVN6icu_7713UnicodeStringE, i64 16), ptr %6, align 8, !tbaa !44
  %7 = getelementptr inbounds nuw i8, ptr %0, i64 120
  store i16 2, ptr %7, align 8, !tbaa !51
  %8 = getelementptr inbounds nuw i8, ptr %0, i64 176
  store ptr getelementptr inbounds nuw inrange(-16, 88) (i8, ptr @_ZTVN6icu_7713UnicodeStringE, i64 16), ptr %8, align 8, !tbaa !44
  %9 = getelementptr inbounds nuw i8, ptr %0, i64 184
  store i16 2, ptr %9, align 8, !tbaa !51
  %10 = getelementptr inbounds nuw i8, ptr %0, i64 240
  %11 = getelementptr inbounds nuw i8, ptr %1, i64 240
  invoke void @_ZN6icu_776LocaleC1ERKS0_(ptr noundef nonnull align 8 dereferenceable(217) %10, ptr noundef nonnull align 8 dereferenceable(217) %11)
          to label %12 unwind label %35

12:                                               ; preds = %2
  %13 = getelementptr inbounds nuw i8, ptr %0, i64 464
  %14 = getelementptr inbounds nuw i8, ptr %0, i64 496
  %15 = getelementptr inbounds nuw i8, ptr %0, i64 520
  store ptr null, ptr %15, align 8, !tbaa !50
  tail call void @llvm.memset.p0.i64(ptr noundef nonnull align 8 dereferenceable(16) %13, i8 0, i64 16, i1 false)
  tail call void @llvm.memset.p0.i64(ptr noundef nonnull align 8 dereferenceable(16) %14, i8 0, i64 16, i1 false)
  call void @llvm.lifetime.start.p0(i64 4, ptr nonnull %3) #23
  store i32 0, ptr %3, align 4, !tbaa !13
  %16 = load ptr, ptr %0, align 8, !tbaa !44
  %17 = getelementptr inbounds nuw i8, ptr %16, i64 216
  %18 = load ptr, ptr %17, align 8
  %19 = invoke noundef nonnull align 8 dereferenceable(48) ptr %18(ptr noundef nonnull align 8 dereferenceable(528) %0, i32 noundef 0, i8 noundef signext 1, ptr noundef nonnull align 4 dereferenceable(4) %3)
          to label %.noexc unwind label %37

.noexc:                                           ; preds = %12
  %20 = load ptr, ptr %0, align 8, !tbaa !44
  %21 = getelementptr inbounds nuw i8, ptr %20, i64 216
  %22 = load ptr, ptr %21, align 8
  %23 = invoke noundef nonnull align 8 dereferenceable(48) ptr %22(ptr noundef nonnull align 8 dereferenceable(528) %0, i32 noundef 1, i8 noundef signext 1, ptr noundef nonnull align 4 dereferenceable(4) %3)
          to label %.noexc13 unwind label %37

.noexc13:                                         ; preds = %.noexc
  %24 = load ptr, ptr %0, align 8, !tbaa !44
  %25 = getelementptr inbounds nuw i8, ptr %24, i64 216
  %26 = load ptr, ptr %25, align 8
  %27 = invoke noundef nonnull align 8 dereferenceable(48) ptr %26(ptr noundef nonnull align 8 dereferenceable(528) %0, i32 noundef 2, i8 noundef signext 1, ptr noundef nonnull align 4 dereferenceable(4) %3)
          to label %.noexc14 unwind label %37

.noexc14:                                         ; preds = %.noexc13
  %28 = load ptr, ptr %0, align 8, !tbaa !44
  %29 = getelementptr inbounds nuw i8, ptr %28, i64 216
  %30 = load ptr, ptr %29, align 8
  %31 = invoke noundef nonnull align 8 dereferenceable(48) ptr %30(ptr noundef nonnull align 8 dereferenceable(528) %0, i32 noundef 3, i8 noundef signext 1, ptr noundef nonnull align 4 dereferenceable(4) %3)
          to label %32 unwind label %37

32:                                               ; preds = %.noexc14
  call void @llvm.lifetime.end.p0(i64 4, ptr nonnull %3) #23
  %33 = invoke noundef nonnull align 8 dereferenceable(528) ptr @_ZN6icu_7716SimpleDateFormataSERKS0_(ptr noundef nonnull align 8 dereferenceable(528) %0, ptr noundef nonnull align 8 dereferenceable(528) %1)
          to label %34 unwind label %37

34:                                               ; preds = %32
  ret void

35:                                               ; preds = %2
  %36 = landingpad { ptr, i32 }
          cleanup
  br label %39

37:                                               ; preds = %.noexc14, %.noexc13, %.noexc, %12, %32
  %38 = landingpad { ptr, i32 }
          cleanup
  call void @_ZN6icu_776LocaleD1Ev(ptr noundef nonnull align 8 dereferenceable(217) %10) #23
  br label %39

39:                                               ; preds = %37, %35
  %.pn = phi { ptr, i32 } [ %38, %37 ], [ %36, %35 ]
  call void @_ZN6icu_7713UnicodeStringD1Ev(ptr noundef nonnull align 8 dereferenceable(64) %8) #23
  call void @_ZN6icu_7713UnicodeStringD1Ev(ptr noundef nonnull align 8 dereferenceable(64) %6) #23
  call void @_ZN6icu_7713UnicodeStringD1Ev(ptr noundef nonnull align 8 dereferenceable(64) %4) #23
  call void @_ZN6icu_7710DateFormatD2Ev(ptr noundef nonnull align 8 dereferenceable(48) %0) #23
  resume { ptr, i32 } %.pn
}